; Function Attrs: mustprogress uwtable
define hidden void @_ZN3api7context7dec_refEP3ast(ptr noundef nonnull align 8 dereferenceable(3056) %0, ptr noundef %1) local_unnamed_addr #3 align 2 personality ptr @__gxx_personality_v0 {
  %3 = getelementptr inbounds nuw i8, ptr %0, i64 225
  %4 = load i8, ptr %3, align 1, !tbaa !28, !range !171, !noundef !172
  %5 = trunc nuw i8 %4 to i1
  br i1 %5, label %6, label %31

6:                                                ; preds = %2
  %7 = getelementptr inbounds nuw i8, ptr %0, i64 256
  %8 = tail call noundef i32 @pthread_mutex_lock(ptr noundef nonnull align 8 dereferenceable(40) %7) #28
  %.not.i.i = icmp eq i32 %8, 0
  br i1 %.not.i.i, label %_ZNSt10lock_guardISt5mutexEC2ERS0_.exit, label %9

9:                                                ; preds = %6
  tail call void @_ZSt20__throw_system_errori(i32 noundef %8) #29
  unreachable

_ZNSt10lock_guardISt5mutexEC2ERS0_.exit:          ; preds = %6
  %10 = getelementptr inbounds nuw i8, ptr %0, i64 1400
  %11 = load ptr, ptr %10, align 8, !tbaa !175
  %12 = icmp eq ptr %11, null
  br i1 %12, label %19, label %13

13:                                               ; preds = %_ZNSt10lock_guardISt5mutexEC2ERS0_.exit
  %14 = getelementptr inbounds i8, ptr %11, i64 -4
  %15 = load i32, ptr %14, align 4, !tbaa !19
  %16 = getelementptr inbounds i8, ptr %11, i64 -8
  %17 = load i32, ptr %16, align 4, !tbaa !19
  %18 = icmp eq i32 %15, %17
  br i1 %18, label %19, label %20

19:                                               ; preds = %13, %_ZNSt10lock_guardISt5mutexEC2ERS0_.exit
  invoke void @_ZN6vectorIP3astLb0EjE13expand_vectorEv(ptr noundef nonnull align 8 dereferenceable(8) %10)
          to label %.noexc unwind label %28

.noexc:                                           ; preds = %19
  %.pre.i = load ptr, ptr %10, align 8, !tbaa !175
  %.phi.trans.insert.i = getelementptr inbounds i8, ptr %.pre.i, i64 -4
  %.pre2.i = load i32, ptr %.phi.trans.insert.i, align 4, !tbaa !19
  br label %20

20:                                               ; preds = %.noexc, %13
  %21 = phi i32 [ %.pre2.i, %.noexc ], [ %15, %13 ]
  %22 = phi ptr [ %.pre.i, %.noexc ], [ %11, %13 ]
  %23 = getelementptr inbounds i8, ptr %22, i64 -4
  %24 = zext i32 %21 to i64
  %25 = getelementptr inbounds nuw ptr, ptr %22, i64 %24
  store ptr %1, ptr %25, align 8, !tbaa !178
  %26 = add i32 %21, 1
  store i32 %26, ptr %23, align 4, !tbaa !19
  %27 = tail call noundef i32 @pthread_mutex_unlock(ptr noundef nonnull align 8 dereferenceable(40) %7) #28
  br label %_ZN11ast_manager7dec_refEP3ast.exit

28:                                               ; preds = %19
  %29 = landingpad { ptr, i32 }
          cleanup
  %30 = tail call noundef i32 @pthread_mutex_unlock(ptr noundef nonnull align 8 dereferenceable(40) %7) #28
  resume { ptr, i32 } %29

31:                                               ; preds = %2
  %32 = getelementptr inbounds nuw i8, ptr %0, i64 232
  %33 = load ptr, ptr %32, align 8, !tbaa !180
  %.not.i = icmp eq ptr %1, null
  br i1 %.not.i, label %_ZN11ast_manager7dec_refEP3ast.exit, label %34

34:                                               ; preds = %31
  %35 = getelementptr inbounds nuw i8, ptr %1, i64 8
  %36 = load i32, ptr %35, align 4, !tbaa !181
  %37 = add i32 %36, -1
  store i32 %37, ptr %35, align 4, !tbaa !181
  %38 = icmp eq i32 %37, 0
  br i1 %38, label %39, label %_ZN11ast_manager7dec_refEP3ast.exit

39:                                               ; preds = %34
  tail call void @_ZN11ast_manager11delete_nodeEP3ast(ptr noundef nonnull align 8 dereferenceable(976) %33, ptr noundef nonnull %1)
  br label %_ZN11ast_manager7dec_refEP3ast.exit

_ZN11ast_manager7dec_refEP3ast.exit:              ; preds = %39, %34, %31, %20
  ret void
}